; ModuleID = '24/2132.c'
source_filename = "24/2132.c"
target datalayout = "e-m:e-p270:32:32-p271:32:32-p272:64:64-i64:64-f80:128-n8:16:32:64-S128"
target triple = "x86_64-pc-linux-gnu"

@.str = private unnamed_addr constant [3 x i8] c"%c\00", align 1
@.str.1 = private unnamed_addr constant [2 x i8] c"\0A\00", align 1

; Function Attrs: noinline nounwind uwtable
define dso_local i32 @main() #0 {
  %1 = alloca i32, align 4
  %2 = alloca [2000 x i8], align 16
  %3 = alloca i32, align 4
  %4 = alloca i32, align 4
  %5 = alloca i32, align 4
  %6 = alloca i32, align 4
  %7 = alloca i32, align 4
  %8 = alloca i32, align 4
  %9 = alloca i32, align 4
  %10 = alloca i32, align 4
  %11 = alloca i32, align 4
  store i32 0, i32* %1, align 4
  %12 = getelementptr inbounds [2000 x i8], [2000 x i8]* %2, i64 0, i64 0
  %13 = call i32 (i8*, ...) bitcast (i32 (...)* @gets to i32 (i8*, ...)*)(i8* %12)
  %14 = getelementptr inbounds [2000 x i8], [2000 x i8]* %2, i64 0, i64 0
  %15 = call i64 @strlen(i8* %14) #3
  %16 = trunc i64 %15 to i32
  store i32 %16, i32* %11, align 4
  store i32 -1, i32* %5, align 4
  store i32 5000, i32* %6, align 4
  store i32 0, i32* %3, align 4
  br label %17

17:                                               ; preds = %71, %0
  %18 = load i32, i32* %3, align 4
  %19 = load i32, i32* %11, align 4
  %20 = icmp slt i32 %18, %19
  br i1 %20, label %21, label %74

21:                                               ; preds = %17
  br label %22

22:                                               ; preds = %29, %21
  %23 = load i32, i32* %3, align 4
  %24 = sext i32 %23 to i64
  %25 = getelementptr inbounds [2000 x i8], [2000 x i8]* %2, i64 0, i64 %24
  %26 = load i8, i8* %25, align 1
  %27 = sext i8 %26 to i32
  %28 = icmp eq i32 %27, 32
  br i1 %28, label %29, label %32

29:                                               ; preds = %22
  %30 = load i32, i32* %3, align 4
  %31 = add nsw i32 %30, 1
  store i32 %31, i32* %3, align 4
  br label %22

32:                                               ; preds = %22
  %33 = load i32, i32* %3, align 4
  store i32 %33, i32* %9, align 4
  br label %34

34:                                               ; preds = %50, %32
  %35 = load i32, i32* %3, align 4
  %36 = sext i32 %35 to i64
  %37 = getelementptr inbounds [2000 x i8], [2000 x i8]* %2, i64 0, i64 %36
  %38 = load i8, i8* %37, align 1
  %39 = sext i8 %38 to i32
  %40 = icmp ne i32 %39, 0
  br i1 %40, label %41, label %48

41:                                               ; preds = %34
  %42 = load i32, i32* %3, align 4
  %43 = sext i32 %42 to i64
  %44 = getelementptr inbounds [2000 x i8], [2000 x i8]* %2, i64 0, i64 %43
  %45 = load i8, i8* %44, align 1
  %46 = sext i8 %45 to i32
  %47 = icmp ne i32 %46, 32
  br label %48

48:                                               ; preds = %41, %34
  %49 = phi i1 [ false, %34 ], [ %47, %41 ]
  br i1 %49, label %50, label %53

50:                                               ; preds = %48
  %51 = load i32, i32* %3, align 4
  %52 = add nsw i32 %51, 1
  store i32 %52, i32* %3, align 4
  br label %34

53:                                               ; preds = %48
  %54 = load i32, i32* %3, align 4
  %55 = load i32, i32* %9, align 4
  %56 = sub nsw i32 %54, %55
  store i32 %56, i32* %10, align 4
  %57 = load i32, i32* %10, align 4
  %58 = load i32, i32* %5, align 4
  %59 = icmp sgt i32 %57, %58
  br i1 %59, label %60, label %63

60:                                               ; preds = %53
  %61 = load i32, i32* %10, align 4
  store i32 %61, i32* %5, align 4
  %62 = load i32, i32* %9, align 4
  store i32 %62, i32* %7, align 4
  br label %63

63:                                               ; preds = %60, %53
  %64 = load i32, i32* %10, align 4
  %65 = load i32, i32* %6, align 4
  %66 = icmp slt i32 %64, %65
  br i1 %66, label %67, label %70

67:                                               ; preds = %63
  %68 = load i32, i32* %10, align 4
  store i32 %68, i32* %6, align 4
  %69 = load i32, i32* %9, align 4
  store i32 %69, i32* %8, align 4
  br label %70

70:                                               ; preds = %67, %63
  br label %71

71:                                               ; preds = %70
  %72 = load i32, i32* %3, align 4
  %73 = add nsw i32 %72, 1
  store i32 %73, i32* %3, align 4
  br label %17

74:                                               ; preds = %17
  br label %75

75:                                               ; preds = %91, %74
  %76 = load i32, i32* %7, align 4
  %77 = sext i32 %76 to i64
  %78 = getelementptr inbounds [2000 x i8], [2000 x i8]* %2, i64 0, i64 %77
  %79 = load i8, i8* %78, align 1
  %80 = sext i8 %79 to i32
  %81 = icmp ne i32 %80, 0
  br i1 %81, label %82, label %89

82:                                               ; preds = %75
  %83 = load i32, i32* %7, align 4
  %84 = sext i32 %83 to i64
  %85 = getelementptr inbounds [2000 x i8], [2000 x i8]* %2, i64 0, i64 %84
  %86 = load i8, i8* %85, align 1
  %87 = sext i8 %86 to i32
  %88 = icmp ne i32 %87, 32
  br label %89

89:                                               ; preds = %82, %75
  %90 = phi i1 [ false, %75 ], [ %88, %82 ]
  br i1 %90, label %91, label %99

91:                                               ; preds = %89
  %92 = load i32, i32* %7, align 4
  %93 = add nsw i32 %92, 1
  store i32 %93, i32* %7, align 4
  %94 = sext i32 %92 to i64
  %95 = getelementptr inbounds [2000 x i8], [2000 x i8]* %2, i64 0, i64 %94
  %96 = load i8, i8* %95, align 1
  %97 = sext i8 %96 to i32
  %98 = call i32 (i8*, ...) @printf(i8* getelementptr inbounds ([3 x i8], [3 x i8]* @.str, i64 0, i64 0), i32 %97)
  br label %75

99:                                               ; preds = %89
  %100 = call i32 (i8*, ...) @printf(i8* getelementptr inbounds ([2 x i8], [2 x i8]* @.str.1, i64 0, i64 0))
  br label %101

101:                                              ; preds = %117, %99
  %102 = load i32, i32* %8, align 4
  %103 = sext i32 %102 to i64
  %104 = getelementptr inbounds [2000 x i8], [2000 x i8]* %2, i64 0, i64 %103
  %105 = load i8, i8* %104, align 1
  %106 = sext i8 %105 to i32
  %107 = icmp ne i32 %106, 0
  br i1 %107, label %108, label %115

108:                                              ; preds = %101
  %109 = load i32, i32* %8, align 4
  %110 = sext i32 %109 to i64
  %111 = getelementptr inbounds [2000 x i8], [2000 x i8]* %2, i64 0, i64 %110
  %112 = load i8, i8* %111, align 1
  %113 = sext i8 %112 to i32
  %114 = icmp ne i32 %113, 32
  br label %115

115:                                              ; preds = %108, %101
  %116 = phi i1 [ false, %101 ], [ %114, %108 ]
  br i1 %116, label %117, label %125

117:                                              ; preds = %115
  %118 = load i32, i32* %8, align 4
  %119 = add nsw i32 %118, 1
  store i32 %119, i32* %8, align 4
  %120 = sext i32 %118 to i64
  %121 = getelementptr inbounds [2000 x i8], [2000 x i8]* %2, i64 0, i64 %120
  %122 = load i8, i8* %121, align 1
  %123 = sext i8 %122 to i32
  %124 = call i32 (i8*, ...) @printf(i8* getelementptr inbounds ([3 x i8], [3 x i8]* @.str, i64 0, i64 0), i32 %123)
  br label %101

125:                                              ; preds = %115
  %126 = call i32 (i8*, ...) @printf(i8* getelementptr inbounds ([2 x i8], [2 x i8]* @.str.1, i64 0, i64 0))
  ret i32 0
}

declare dso_local i32 @gets(...) #1

; Function Attrs: nounwind readonly
declare dso_local i64 @strlen(i8*) #2

declare dso_local i32 @printf(i8*, ...) #1


!llvm.module.flags = !{!0}
!llvm.ident = !{!1}

!0 = !{i32 1, !"wchar_size", i32 4}
!1 = !{!"clang version 10.0.0-4ubuntu1 "}
